; Function Attrs: nounwind uwtable
define dso_local void @dsm_pin_mapping(ptr noundef %0) local_unnamed_addr #0 {
  %2 = getelementptr inbounds nuw i8, ptr %0, i64 16
  %3 = load ptr, ptr %2, align 8
  %.not = icmp eq ptr %3, null
  br i1 %.not, label %6, label %4

4:                                                ; preds = %1
  %5 = ptrtoint ptr %0 to i64
  tail call void @ResourceOwnerForget(ptr noundef nonnull %3, i64 noundef %5, ptr noundef nonnull @dsm_resowner_desc) #12
  store ptr null, ptr %2, align 8
  br label %6

6:                                                ; preds = %4, %1
  ret void
}